target datalayout = "e-m:e-p270:32:32-p271:32:32-p272:64:64-i64:64-i128:128-f80:128-n8:16:32:64-S128"
target triple = "x86_64-pc-linux-gnu"

%struct.Abc_Frame_t_ = type { ptr, ptr, ptr, ptr, ptr, ptr, ptr, ptr, ptr, ptr, i32, i32, i32, i32, i32, ptr, float, float, i32, i32, ptr, ptr, ptr, double, double, ptr, ptr, ptr, ptr, ptr, ptr, ptr, ptr, ptr, ptr, ptr, ptr, float, ptr, i32, ptr, ptr, ptr, ptr, ptr, i32, i32, i32, i32, i32, i32, ptr, ptr, ptr, ptr, ptr, ptr, i32, i32, ptr, ptr, ptr, ptr, ptr, ptr, ptr, ptr, ptr, ptr, ptr, ptr, ptr, ptr, ptr, ptr, ptr, ptr, ptr, ptr, ptr, ptr, ptr, ptr, ptr, ptr, ptr, ptr, ptr, ptr }

@.str.22 = private unnamed_addr constant [3 x i8] c"rb\00", align 1
@.str.23 = private unnamed_addr constant [31 x i8] c"Cannot open input file \22%s\22. \0A\00", align 1
@.str.24 = private unnamed_addr constant [49 x i8] c"Reading SCL library from file \22%s\22 has failed. \0A\00", align 1
@globalUtilOptind = external global i32, align 4
@.str.31 = private unnamed_addr constant [10 x i8] c"_temp.lib\00", align 1
@.str.39 = private unnamed_addr constant [4 x i8] c"yes\00", align 1
@.str.40 = private unnamed_addr constant [3 x i8] c"no\00", align 1
@.str.75 = private unnamed_addr constant [3 x i8] c"dh\00", align 1
@.str.76 = private unnamed_addr constant [30 x i8] c"usage: read_scl [-dh] <file>\0A\00", align 1
@.str.77 = private unnamed_addr constant [53 x i8] c"\09         reads extracted Liberty library from file\0A\00", align 1
@.str.78 = private unnamed_addr constant [83 x i8] c"\09-d     : toggle dumping the parsed library into file \22*_temp.lib\22 [default = %s]\0A\00", align 1
@.str.79 = private unnamed_addr constant [38 x i8] c"\09-h     : prints the command summary\0A\00", align 1
@.str.80 = private unnamed_addr constant [38 x i8] c"\09<file> : the name of a file to read\0A\00", align 1

; Function Attrs: nounwind uwtable
define void @Abc_SclLoad(ptr noundef %0, ptr noundef %1) #0 {
  %3 = alloca ptr, align 8
  %4 = alloca ptr, align 8
  store ptr %0, ptr %3, align 8, !tbaa !25
  store ptr %1, ptr %4, align 8, !tbaa !27
  %5 = load ptr, ptr %4, align 8, !tbaa !27
  %6 = load ptr, ptr %5, align 8, !tbaa !25
  %7 = icmp ne ptr %6, null
  br i1 %7, label %8, label %12

8:                                                ; preds = %2
  %9 = load ptr, ptr %4, align 8, !tbaa !27
  %10 = load ptr, ptr %9, align 8, !tbaa !25
  call void @Abc_SclLibFree(ptr noundef %10)
  %11 = load ptr, ptr %4, align 8, !tbaa !27
  store ptr null, ptr %11, align 8, !tbaa !25
  br label %12

12:                                               ; preds = %8, %2
  %13 = load ptr, ptr %3, align 8, !tbaa !25
  %14 = icmp ne ptr %13, null
  br i1 %14, label %15, label %18

15:                                               ; preds = %12
  %16 = load ptr, ptr %3, align 8, !tbaa !25
  %17 = load ptr, ptr %4, align 8, !tbaa !27
  store ptr %16, ptr %17, align 8, !tbaa !25
  br label %18

18:                                               ; preds = %15, %12
  ret void
}

; Function Attrs: nounwind uwtable
define internal i32 @Scl_CommandReadScl(ptr noundef %0, i32 noundef %1, ptr noundef %2) #0 {
  %4 = alloca i32, align 4
  %5 = alloca ptr, align 8
  %6 = alloca i32, align 4
  %7 = alloca ptr, align 8
  %8 = alloca ptr, align 8
  %9 = alloca ptr, align 8
  %10 = alloca ptr, align 8
  %11 = alloca i32, align 4
  %12 = alloca i32, align 4
  %13 = alloca i32, align 4
  store ptr %0, ptr %5, align 8, !tbaa !3
  store i32 %1, ptr %6, align 4, !tbaa !29
  store ptr %2, ptr %7, align 8, !tbaa !50
  call void @llvm.lifetime.start.p0(i64 8, ptr %8) #12
  call void @llvm.lifetime.start.p0(i64 8, ptr %9) #12
  call void @llvm.lifetime.start.p0(i64 8, ptr %10) #12
  call void @llvm.lifetime.start.p0(i64 4, ptr %11) #12
  call void @llvm.lifetime.start.p0(i64 4, ptr %12) #12
  store i32 0, ptr %12, align 4, !tbaa !29
  call void (...) @Extra_UtilGetoptReset()
  br label %14

14:                                               ; preds = %26, %3
  %15 = load i32, ptr %6, align 4, !tbaa !29
  %16 = load ptr, ptr %7, align 8, !tbaa !50
  %17 = call i32 @Extra_UtilGetopt(i32 noundef %15, ptr noundef %16, ptr noundef @.str.75)
  store i32 %17, ptr %11, align 4, !tbaa !29
  %18 = icmp ne i32 %17, -1
  br i1 %18, label %19, label %27

19:                                               ; preds = %14
  %20 = load i32, ptr %11, align 4, !tbaa !29
  switch i32 %20, label %25 [
    i32 100, label %21
    i32 104, label %24
  ]

21:                                               ; preds = %19
  %22 = load i32, ptr %12, align 4, !tbaa !29
  %23 = xor i32 %22, 1
  store i32 %23, ptr %12, align 4, !tbaa !29
  br label %26

24:                                               ; preds = %19
  br label %83

25:                                               ; preds = %19
  br label %83

26:                                               ; preds = %21
  br label %14, !llvm.loop !66

27:                                               ; preds = %14
  %28 = load i32, ptr %6, align 4, !tbaa !29
  %29 = load i32, ptr @globalUtilOptind, align 4, !tbaa !29
  %30 = add nsw i32 %29, 1
  %31 = icmp ne i32 %28, %30
  br i1 %31, label %32, label %33

32:                                               ; preds = %27
  br label %83

33:                                               ; preds = %27
  %34 = load ptr, ptr %7, align 8, !tbaa !50
  %35 = load i32, ptr @globalUtilOptind, align 4, !tbaa !29
  %36 = sext i32 %35 to i64
  %37 = getelementptr inbounds ptr, ptr %34, i64 %36
  %38 = load ptr, ptr %37, align 8, !tbaa !56
  store ptr %38, ptr %10, align 8, !tbaa !56
  %39 = load ptr, ptr %10, align 8, !tbaa !56
  %40 = call noalias ptr @fopen(ptr noundef %39, ptr noundef @.str.22)
  store ptr %40, ptr %8, align 8, !tbaa !63
  %41 = icmp eq ptr %40, null
  br i1 %41, label %42, label %48

42:                                               ; preds = %33
  %43 = load ptr, ptr %5, align 8, !tbaa !3
  %44 = getelementptr inbounds nuw %struct.Abc_Frame_t_, ptr %43, i32 0, i32 21
  %45 = load ptr, ptr %44, align 8, !tbaa !59
  %46 = load ptr, ptr %10, align 8, !tbaa !56
  %47 = call i32 (ptr, ptr, ...) @fprintf(ptr noundef %45, ptr noundef @.str.23, ptr noundef %46) #12
  store i32 1, ptr %4, align 4
  store i32 1, ptr %13, align 4
  br label %107

48:                                               ; preds = %33
  %49 = load ptr, ptr %8, align 8, !tbaa !63
  %50 = call i32 @fclose(ptr noundef %49)
  %51 = load ptr, ptr %10, align 8, !tbaa !56
  %52 = call ptr @Abc_SclReadFromFile(ptr noundef %51)
  store ptr %52, ptr %9, align 8, !tbaa !25
  %53 = load ptr, ptr %9, align 8, !tbaa !25
  %54 = icmp eq ptr %53, null
  br i1 %54, label %55, label %61

55:                                               ; preds = %48
  %56 = load ptr, ptr %5, align 8, !tbaa !3
  %57 = getelementptr inbounds nuw %struct.Abc_Frame_t_, ptr %56, i32 0, i32 21
  %58 = load ptr, ptr %57, align 8, !tbaa !59
  %59 = load ptr, ptr %10, align 8, !tbaa !56
  %60 = call i32 (ptr, ptr, ...) @fprintf(ptr noundef %58, ptr noundef @.str.24, ptr noundef %59) #12
  store i32 1, ptr %4, align 4
  store i32 1, ptr %13, align 4
  br label %107

61:                                               ; preds = %48
  %62 = load ptr, ptr %9, align 8, !tbaa !25
  %63 = load ptr, ptr %5, align 8, !tbaa !3
  %64 = getelementptr inbounds nuw %struct.Abc_Frame_t_, ptr %63, i32 0, i32 34
  call void @Abc_SclLoad(ptr noundef %62, ptr noundef %64)
  %65 = load i32, ptr %12, align 4, !tbaa !29
  %66 = icmp ne i32 %65, 0
  br i1 %66, label %67, label %73

67:                                               ; preds = %61
  %68 = load ptr, ptr %10, align 8, !tbaa !56
  %69 = call ptr @Extra_FileNameGenericAppend(ptr noundef %68, ptr noundef @.str.31)
  %70 = load ptr, ptr %5, align 8, !tbaa !3
  %71 = getelementptr inbounds nuw %struct.Abc_Frame_t_, ptr %70, i32 0, i32 34
  %72 = load ptr, ptr %71, align 8, !tbaa !58
  call void @Abc_SclWriteLiberty(ptr noundef %69, ptr noundef %72)
  br label %73

73:                                               ; preds = %67, %61
  %74 = load ptr, ptr %5, align 8, !tbaa !3
  %75 = getelementptr inbounds nuw %struct.Abc_Frame_t_, ptr %74, i32 0, i32 34
  %76 = load ptr, ptr %75, align 8, !tbaa !58
  %77 = icmp ne ptr %76, null
  br i1 %77, label %78, label %82

78:                                               ; preds = %73
  %79 = load ptr, ptr %5, align 8, !tbaa !3
  %80 = getelementptr inbounds nuw %struct.Abc_Frame_t_, ptr %79, i32 0, i32 34
  %81 = load ptr, ptr %80, align 8, !tbaa !58
  call void @Abc_SclInstallGenlib(ptr noundef %81, float noundef 0.000000e+00, float noundef 0.000000e+00, i32 noundef 0, i32 noundef 0)
  call void (...) @Mio_LibraryTransferCellIds()
  br label %82

82:                                               ; preds = %78, %73
  store i32 0, ptr %4, align 4
  store i32 1, ptr %13, align 4
  br label %107

83:                                               ; preds = %32, %25, %24
  %84 = load ptr, ptr %5, align 8, !tbaa !3
  %85 = getelementptr inbounds nuw %struct.Abc_Frame_t_, ptr %84, i32 0, i32 21
  %86 = load ptr, ptr %85, align 8, !tbaa !59
  %87 = call i32 (ptr, ptr, ...) @fprintf(ptr noundef %86, ptr noundef @.str.76) #12
  %88 = load ptr, ptr %5, align 8, !tbaa !3
  %89 = getelementptr inbounds nuw %struct.Abc_Frame_t_, ptr %88, i32 0, i32 21
  %90 = load ptr, ptr %89, align 8, !tbaa !59
  %91 = call i32 (ptr, ptr, ...) @fprintf(ptr noundef %90, ptr noundef @.str.77) #12
  %92 = load ptr, ptr %5, align 8, !tbaa !3
  %93 = getelementptr inbounds nuw %struct.Abc_Frame_t_, ptr %92, i32 0, i32 21
  %94 = load ptr, ptr %93, align 8, !tbaa !59
  %95 = load i32, ptr %12, align 4, !tbaa !29
  %96 = icmp ne i32 %95, 0
  %97 = select i1 %96, ptr @.str.39, ptr @.str.40
  %98 = call i32 (ptr, ptr, ...) @fprintf(ptr noundef %94, ptr noundef @.str.78, ptr noundef %97) #12
  %99 = load ptr, ptr %5, align 8, !tbaa !3
  %100 = getelementptr inbounds nuw %struct.Abc_Frame_t_, ptr %99, i32 0, i32 21
  %101 = load ptr, ptr %100, align 8, !tbaa !59
  %102 = call i32 (ptr, ptr, ...) @fprintf(ptr noundef %101, ptr noundef @.str.79) #12
  %103 = load ptr, ptr %5, align 8, !tbaa !3
  %104 = getelementptr inbounds nuw %struct.Abc_Frame_t_, ptr %103, i32 0, i32 21
  %105 = load ptr, ptr %104, align 8, !tbaa !59
  %106 = call i32 (ptr, ptr, ...) @fprintf(ptr noundef %105, ptr noundef @.str.80) #12
  store i32 1, ptr %4, align 4
  store i32 1, ptr %13, align 4
  br label %107

107:                                              ; preds = %83, %82, %55, %42
  call void @llvm.lifetime.end.p0(i64 4, ptr %12) #12
  call void @llvm.lifetime.end.p0(i64 4, ptr %11) #12
  call void @llvm.lifetime.end.p0(i64 8, ptr %10) #12
  call void @llvm.lifetime.end.p0(i64 8, ptr %9) #12
  call void @llvm.lifetime.end.p0(i64 8, ptr %8) #12
  %108 = load i32, ptr %4, align 4
  ret i32 %108
}