; Function Attrs: nounwind uwtable
define internal range(i32 0, 2) i32 @Scl_CommandReadScl(ptr noundef captures(none) %0, i32 noundef %1, ptr noundef %2) #0 {
  tail call void (...) @Extra_UtilGetoptReset() #12
  br label %4

4:                                                ; preds = %6, %3
  %.0 = phi i32 [ 0, %3 ], [ %7, %6 ]
  %5 = tail call i32 @Extra_UtilGetopt(i32 noundef %1, ptr noundef %2, ptr noundef nonnull @.str.75) #12
  switch i32 %5, label %.loopexit [
    i32 -1, label %8
    i32 100, label %6
  ]

6:                                                ; preds = %4
  %7 = xor i32 %.0, 1
  br label %4, !llvm.loop !90

8:                                                ; preds = %4
  %9 = load i32, ptr @globalUtilOptind, align 4, !tbaa !81
  %10 = add nsw i32 %9, 1
  %.not32 = icmp eq i32 %1, %10
  br i1 %.not32, label %11, label %.loopexit

11:                                               ; preds = %8
  %12 = sext i32 %9 to i64
  %13 = getelementptr inbounds ptr, ptr %2, i64 %12
  %14 = load ptr, ptr %13, align 8, !tbaa !82
  %15 = tail call noalias ptr @fopen(ptr noundef %14, ptr noundef nonnull @.str.22)
  %16 = icmp eq ptr %15, null
  br i1 %16, label %17, label %21

17:                                               ; preds = %11
  %18 = getelementptr inbounds nuw i8, ptr %0, i64 136
  %19 = load ptr, ptr %18, align 8, !tbaa !84
  %20 = tail call i32 (ptr, ptr, ...) @fprintf(ptr noundef %19, ptr noundef nonnull @.str.23, ptr noundef %14) #12
  br label %49

21:                                               ; preds = %11
  %22 = tail call i32 @fclose(ptr noundef nonnull %15)
  %23 = tail call ptr @Abc_SclReadFromFile(ptr noundef %14) #12
  %24 = icmp eq ptr %23, null
  br i1 %24, label %25, label %29

25:                                               ; preds = %21
  %26 = getelementptr inbounds nuw i8, ptr %0, i64 136
  %27 = load ptr, ptr %26, align 8, !tbaa !84
  %28 = tail call i32 (ptr, ptr, ...) @fprintf(ptr noundef %27, ptr noundef nonnull @.str.24, ptr noundef %14) #12
  br label %49

29:                                               ; preds = %21
  %30 = getelementptr inbounds nuw i8, ptr %0, i64 240
  %31 = load ptr, ptr %30, align 8, !tbaa !23
  %.not.i = icmp eq ptr %31, null
  br i1 %.not.i, label %Abc_SclLoad.exit, label %32

32:                                               ; preds = %29
  tail call fastcc void @Abc_SclLibFree(ptr noundef %31)
  br label %Abc_SclLoad.exit

Abc_SclLoad.exit:                                 ; preds = %32, %29
  store ptr %23, ptr %30, align 8, !tbaa !23
  %.not33 = icmp eq i32 %.0, 0
  br i1 %.not33, label %.thread, label %33

33:                                               ; preds = %Abc_SclLoad.exit
  %34 = tail call ptr @Extra_FileNameGenericAppend(ptr noundef %14, ptr noundef nonnull @.str.31) #12
  %35 = load ptr, ptr %30, align 8, !tbaa !85
  tail call void @Abc_SclWriteLiberty(ptr noundef %34, ptr noundef %35) #12
  %.pr = load ptr, ptr %30, align 8, !tbaa !85
  %.not34 = icmp eq ptr %.pr, null
  br i1 %.not34, label %49, label %.thread

.thread:                                          ; preds = %Abc_SclLoad.exit, %33
  %36 = phi ptr [ %.pr, %33 ], [ %23, %Abc_SclLoad.exit ]
  tail call void @Abc_SclInstallGenlib(ptr noundef nonnull %36, float noundef 0.000000e+00, float noundef 0.000000e+00, i32 noundef 0, i32 noundef 0) #12
  tail call void (...) @Mio_LibraryTransferCellIds() #12
  br label %49

.loopexit:                                        ; preds = %4, %8
  %37 = getelementptr inbounds nuw i8, ptr %0, i64 136
  %38 = load ptr, ptr %37, align 8, !tbaa !84
  %39 = tail call i64 @fwrite(ptr nonnull @.str.76, i64 29, i64 1, ptr %38)
  %40 = load ptr, ptr %37, align 8, !tbaa !84
  %41 = tail call i64 @fwrite(ptr nonnull @.str.77, i64 52, i64 1, ptr %40)
  %42 = load ptr, ptr %37, align 8, !tbaa !84
  %.not35 = icmp eq i32 %.0, 0
  %43 = select i1 %.not35, ptr @.str.40, ptr @.str.39
  %44 = tail call i32 (ptr, ptr, ...) @fprintf(ptr noundef %42, ptr noundef nonnull @.str.78, ptr noundef nonnull %43) #12
  %45 = load ptr, ptr %37, align 8, !tbaa !84
  %46 = tail call i64 @fwrite(ptr nonnull @.str.79, i64 37, i64 1, ptr %45)
  %47 = load ptr, ptr %37, align 8, !tbaa !84
  %48 = tail call i64 @fwrite(ptr nonnull @.str.80, i64 37, i64 1, ptr %47)
  br label %49

49:                                               ; preds = %33, %.thread, %.loopexit, %25, %17
  %.027 = phi i32 [ 1, %.loopexit ], [ 1, %17 ], [ 1, %25 ], [ 0, %.thread ], [ 0, %33 ]
  ret i32 %.027
}